target datalayout = "e-m:e-p270:32:32-p271:32:32-p272:64:64-i64:64-i128:128-f80:128-n8:16:32:64-S128"
target triple = "x86_64-unknown-linux-gnu"

%"class.icu_75::TZDBNames" = type <{ ptr, ptr, ptr, i32, [4 x i8] }>

@_ZTVN6icu_759TZDBNamesE = unnamed_addr constant { [4 x ptr] } { [4 x ptr] [ptr null, ptr @_ZTIN6icu_759TZDBNamesE, ptr @_ZN6icu_759TZDBNamesD1Ev, ptr @_ZN6icu_759TZDBNamesD0Ev] }, align 8

; Function Attrs: mustprogress nounwind uwtable
define void @_ZN6icu_759TZDBNamesC2EPPKDsPPci(ptr noundef nonnull align 8 dereferenceable(28) %this, ptr noundef %names, ptr noundef %regions, i32 noundef %numRegions) unnamed_addr #0 align 2 {
entry:
  %this.addr = alloca ptr, align 8
  %names.addr = alloca ptr, align 8
  %regions.addr = alloca ptr, align 8
  %numRegions.addr = alloca i32, align 4
  store ptr %this, ptr %this.addr, align 8
  store ptr %names, ptr %names.addr, align 8
  store ptr %regions, ptr %regions.addr, align 8
  store i32 %numRegions, ptr %numRegions.addr, align 4
  %this1 = load ptr, ptr %this.addr, align 8
  store ptr getelementptr inbounds ({ [4 x ptr] }, ptr @_ZTVN6icu_759TZDBNamesE, i32 0, i32 0, i32 2), ptr %this1, align 8
  %fNames = getelementptr inbounds %"class.icu_75::TZDBNames", ptr %this1, i32 0, i32 1
  %0 = load ptr, ptr %names.addr, align 8
  store ptr %0, ptr %fNames, align 8
  %fRegions = getelementptr inbounds %"class.icu_75::TZDBNames", ptr %this1, i32 0, i32 2
  %1 = load ptr, ptr %regions.addr, align 8
  store ptr %1, ptr %fRegions, align 8
  %fNumRegions = getelementptr inbounds %"class.icu_75::TZDBNames", ptr %this1, i32 0, i32 3
  %2 = load i32, ptr %numRegions.addr, align 4
  store i32 %2, ptr %fNumRegions, align 8
  ret void
}