; Function Attrs: mustprogress nofree norecurse nosync nounwind willreturn memory(argmem: write) uwtable
define void @_ZN6icu_759TZDBNamesC2EPPKDsPPci(ptr nocapture noundef nonnull writeonly align 8 dereferenceable(28) %this, ptr noundef %names, ptr noundef %regions, i32 noundef %numRegions) unnamed_addr #6 align 2 {
entry:
  store ptr getelementptr inbounds ({ [4 x ptr] }, ptr @_ZTVN6icu_759TZDBNamesE, i64 0, i32 0, i64 2), ptr %this, align 8
  %fNames = getelementptr inbounds i8, ptr %this, i64 8
  store ptr %names, ptr %fNames, align 8
  %fRegions = getelementptr inbounds i8, ptr %this, i64 16
  store ptr %regions, ptr %fRegions, align 8
  %fNumRegions = getelementptr inbounds i8, ptr %this, i64 24
  store i32 %numRegions, ptr %fNumRegions, align 8
  ret void
}